target datalayout = "e-m:e-p270:32:32-p271:32:32-p272:64:64-i64:64-i128:128-f80:128-n8:16:32:64-S128"
target triple = "x86_64-pc-linux-gnu"

%"class.llvm::Bitset" = type { %"struct.std::array" }
%"struct.std::array" = type { [2 x i64] }
%"class.(anonymous namespace)::RISCVInstructionSelector" = type { %"class.llvm::InstructionSelector", ptr, ptr, ptr, ptr, ptr, ptr, %"class.llvm::Bitset", %"class.llvm::Bitset", %"struct.llvm::GIMatchTableExecutor::MatcherState", %"struct.llvm::GIMatchTableExecutor::ExecInfoTy" }
%"class.llvm::InstructionSelector" = type { %"class.llvm::GIMatchTableExecutor", ptr, ptr, ptr }
%"class.llvm::GIMatchTableExecutor" = type { ptr, ptr, ptr, ptr, ptr, ptr, ptr }
%"struct.llvm::GIMatchTableExecutor::MatcherState" = type { %"class.std::vector", %"class.llvm::SmallVector", %"class.llvm::DenseMap", %"struct.std::array.0", %"class.llvm::SmallVector.1" }
%"class.std::vector" = type { %"struct.std::_Vector_base" }
%"struct.std::_Vector_base" = type { %"struct.std::_Vector_base<llvm::SmallVector<std::function<void (llvm::MachineInstrBuilder &)>, 4>, std::allocator<llvm::SmallVector<std::function<void (llvm::MachineInstrBuilder &)>, 4>>>::_Vector_impl" }
%"struct.std::_Vector_base<llvm::SmallVector<std::function<void (llvm::MachineInstrBuilder &)>, 4>, std::allocator<llvm::SmallVector<std::function<void (llvm::MachineInstrBuilder &)>, 4>>>::_Vector_impl" = type { %"struct.std::_Vector_base<llvm::SmallVector<std::function<void (llvm::MachineInstrBuilder &)>, 4>, std::allocator<llvm::SmallVector<std::function<void (llvm::MachineInstrBuilder &)>, 4>>>::_Vector_impl_data" }
%"struct.std::_Vector_base<llvm::SmallVector<std::function<void (llvm::MachineInstrBuilder &)>, 4>, std::allocator<llvm::SmallVector<std::function<void (llvm::MachineInstrBuilder &)>, 4>>>::_Vector_impl_data" = type { ptr, ptr, ptr }
%"class.llvm::SmallVector" = type { %"class.llvm::SmallVectorImpl", %"struct.llvm::SmallVectorStorage" }
%"class.llvm::SmallVectorImpl" = type { %"class.llvm::SmallVectorTemplateBase" }
%"class.llvm::SmallVectorTemplateBase" = type { %"class.llvm::SmallVectorTemplateCommon" }
%"class.llvm::SmallVectorTemplateCommon" = type { %"class.llvm::SmallVectorBase" }
%"class.llvm::SmallVectorBase" = type { ptr, i32, i32 }
%"struct.llvm::SmallVectorStorage" = type { [32 x i8] }
%"class.llvm::DenseMap" = type <{ ptr, i32, i32, i32, [4 x i8] }>
%"struct.std::array.0" = type { [3 x ptr] }
%"class.llvm::SmallVector.1" = type { %"class.llvm::SmallVectorImpl.2", %"struct.llvm::SmallVectorStorage.5" }
%"class.llvm::SmallVectorImpl.2" = type { %"class.llvm::SmallVectorTemplateBase.3" }
%"class.llvm::SmallVectorTemplateBase.3" = type { %"class.llvm::SmallVectorTemplateCommon.4" }
%"class.llvm::SmallVectorTemplateCommon.4" = type { %"class.llvm::SmallVectorBase" }
%"struct.llvm::SmallVectorStorage.5" = type { [32 x i8] }
%"struct.llvm::GIMatchTableExecutor::ExecInfoTy" = type { ptr, ptr, ptr, ptr, %"class.llvm::SmallDenseMap" }
%"class.llvm::SmallDenseMap" = type { i32, i32, %"struct.llvm::AlignedCharArrayUnion" }
%"struct.llvm::AlignedCharArrayUnion" = type { [1024 x i8] }
%"class.llvm::Register" = type { i32 }
%"class.llvm::DebugLoc" = type { %"class.llvm::TypedTrackingMDRef" }
%"class.llvm::TypedTrackingMDRef" = type { %"class.llvm::TrackingMDRef" }
%"class.llvm::TrackingMDRef" = type { ptr }
%"class.llvm::MachineOperand" = type { i32, %union.anon.270, ptr, %"union.llvm::MachineOperand::ContentsUnion" }
%union.anon.270 = type { i32 }
%"union.llvm::MachineOperand::ContentsUnion" = type { %"class.llvm::ArrayRef.271" }
%"class.llvm::ArrayRef.271" = type { ptr, i64 }
%"class.llvm::MachineInstr" = type <{ %"class.llvm::ilist_node_with_parent", ptr, ptr, ptr, [3 x i8], %"class.llvm::ArrayRecycler<llvm::MachineOperand>::Capacity", i32, %"class.llvm::PointerSumType", %"class.llvm::DebugLoc", i32, i16, [2 x i8] }>
%"class.llvm::ilist_node_with_parent" = type { %"class.llvm::ilist_node.275" }
%"class.llvm::ilist_node.275" = type { %"class.llvm::ilist_node_impl.276" }
%"class.llvm::ilist_node_impl.276" = type { %"class.llvm::ilist_node_base.277" }
%"class.llvm::ilist_node_base.277" = type { %"class.llvm::ilist_detail::node_base_prevnext.278" }
%"class.llvm::ilist_detail::node_base_prevnext.278" = type { %"class.llvm::PointerIntPair", ptr }
%"class.llvm::PointerIntPair" = type { %"struct.llvm::detail::PunnedPointer" }
%"struct.llvm::detail::PunnedPointer" = type { [8 x i8] }
%"class.llvm::ArrayRecycler<llvm::MachineOperand>::Capacity" = type { i8 }
%"class.llvm::PointerSumType" = type { %"union.llvm::PointerSumType<llvm::MachineInstr::ExtraInfoInlineKinds, llvm::PointerSumTypeMember<0, llvm::MachineMemOperand *>, llvm::PointerSumTypeMember<1, llvm::MCSymbol *>, llvm::PointerSumTypeMember<2, llvm::MCSymbol *>, llvm::PointerSumTypeMember<3, llvm::MachineInstr::ExtraInfo *>>::StorageT" }
%"union.llvm::PointerSumType<llvm::MachineInstr::ExtraInfoInlineKinds, llvm::PointerSumTypeMember<0, llvm::MachineMemOperand *>, llvm::PointerSumTypeMember<1, llvm::MCSymbol *>, llvm::PointerSumTypeMember<2, llvm::MCSymbol *>, llvm::PointerSumTypeMember<3, llvm::MachineInstr::ExtraInfo *>>::StorageT" = type { i64 }
%"class.llvm::MCInstrInfo" = type <{ ptr, ptr, ptr, ptr, ptr, i32, [4 x i8] }>
%"class.llvm::MCInstrDesc" = type { i16, i16, i8, i8, i16, i8, i8, i16, i16, i64, i64 }
%"class.llvm::RegisterBank" = type { i32, i32, ptr, ptr }

; Function Attrs: mustprogress nounwind uwtable
define linkonce_odr hidden noundef i32 @_ZNK4llvm12RegisterBank5getIDEv(ptr noundef nonnull align 8 dereferenceable(24) %0) #0 comdat align 2 {
  %2 = alloca ptr, align 8
  store ptr %0, ptr %2, align 8
  %3 = load ptr, ptr %2, align 8
  %4 = getelementptr inbounds nuw %"class.llvm::RegisterBank", ptr %3, i32 0, i32 0
  %5 = load i32, ptr %4, align 8
  ret i32 %5
}

; Function Attrs: mustprogress nounwind uwtable
define linkonce_odr hidden void @_ZN4llvm8RegisterC2Ej(ptr noundef nonnull align 4 dereferenceable(4) %0, i32 noundef %1) unnamed_addr #0 comdat align 2 {
  %3 = alloca ptr, align 8
  %4 = alloca i32, align 4
  store ptr %0, ptr %3, align 8
  store i32 %1, ptr %4, align 4
  %5 = load ptr, ptr %3, align 8
  %6 = getelementptr inbounds nuw %"class.llvm::Register", ptr %5, i32 0, i32 0
  %7 = load i32, ptr %4, align 4
  store i32 %7, ptr %6, align 4
  ret void
}

; Function Attrs: mustprogress nounwind uwtable
define linkonce_odr hidden noundef nonnull align 8 dereferenceable(32) ptr @_ZNK4llvm11MCInstrInfo3getEj(ptr noundef nonnull align 8 dereferenceable(44) %0, i32 noundef %1) #0 comdat align 2 {
  %3 = alloca ptr, align 8
  %4 = alloca i32, align 4
  store ptr %0, ptr %3, align 8
  store i32 %1, ptr %4, align 4
  %5 = load ptr, ptr %3, align 8
  %6 = getelementptr inbounds nuw %"class.llvm::MCInstrInfo", ptr %5, i32 0, i32 0
  %7 = load ptr, ptr %6, align 8
  %8 = load i32, ptr %4, align 4
  %9 = zext i32 %8 to i64
  %10 = sub i64 0, %9
  %11 = getelementptr inbounds %"class.llvm::MCInstrDesc", ptr %7, i64 %10
  ret ptr %11
}

; Function Attrs: mustprogress nounwind uwtable
define internal noundef zeroext i1 @_ZNK12_GLOBAL__N_124RISCVInstructionSelector11isRegInGprbEN4llvm8RegisterERNS1_19MachineRegisterInfoE(ptr noundef nonnull align 8 dereferenceable(1392) %0, i32 %1, ptr noundef nonnull align 8 dereferenceable(512) %2) #0 align 2 {
  %4 = alloca %"class.llvm::Register", align 4
  %5 = alloca ptr, align 8
  %6 = alloca ptr, align 8
  %7 = alloca %"class.llvm::Register", align 4
  %8 = getelementptr inbounds nuw %"class.llvm::Register", ptr %4, i32 0, i32 0
  store i32 %1, ptr %8, align 4
  store ptr %0, ptr %5, align 8
  store ptr %2, ptr %6, align 8
  %9 = load ptr, ptr %5, align 8
  %10 = getelementptr inbounds nuw %"class.(anonymous namespace)::RISCVInstructionSelector", ptr %9, i32 0, i32 4
  %11 = load ptr, ptr %10, align 8
  call void @llvm.memcpy.p0.p0.i64(ptr align 4 %7, ptr align 4 %4, i64 4, i1 false)
  %12 = load ptr, ptr %6, align 8
  %13 = getelementptr inbounds nuw %"class.(anonymous namespace)::RISCVInstructionSelector", ptr %9, i32 0, i32 3
  %14 = load ptr, ptr %13, align 8
  %15 = getelementptr inbounds nuw %"class.llvm::Register", ptr %7, i32 0, i32 0
  %16 = load i32, ptr %15, align 4
  %17 = call noundef ptr @_ZNK4llvm16RegisterBankInfo10getRegBankENS_8RegisterERKNS_19MachineRegisterInfoERKNS_18TargetRegisterInfoE(ptr noundef nonnull align 8 dereferenceable(160) %11, i32 %16, ptr noundef nonnull align 8 dereferenceable(512) %12, ptr noundef nonnull align 8 dereferenceable(308) %14)
  %18 = call noundef i32 @_ZNK4llvm12RegisterBank5getIDEv(ptr noundef nonnull align 8 dereferenceable(24) %17)
  %19 = icmp eq i32 %18, 1
  ret i1 %19
}

; Function Attrs: mustprogress nounwind uwtable
define internal noundef zeroext i1 @_ZNK12_GLOBAL__N_124RISCVInstructionSelector11isRegInFprbEN4llvm8RegisterERNS1_19MachineRegisterInfoE(ptr noundef nonnull align 8 dereferenceable(1392) %0, i32 %1, ptr noundef nonnull align 8 dereferenceable(512) %2) #0 align 2 {
  %4 = alloca %"class.llvm::Register", align 4
  %5 = alloca ptr, align 8
  %6 = alloca ptr, align 8
  %7 = alloca %"class.llvm::Register", align 4
  %8 = getelementptr inbounds nuw %"class.llvm::Register", ptr %4, i32 0, i32 0
  store i32 %1, ptr %8, align 4
  store ptr %0, ptr %5, align 8
  store ptr %2, ptr %6, align 8
  %9 = load ptr, ptr %5, align 8
  %10 = getelementptr inbounds nuw %"class.(anonymous namespace)::RISCVInstructionSelector", ptr %9, i32 0, i32 4
  %11 = load ptr, ptr %10, align 8
  call void @llvm.memcpy.p0.p0.i64(ptr align 4 %7, ptr align 4 %4, i64 4, i1 false)
  %12 = load ptr, ptr %6, align 8
  %13 = getelementptr inbounds nuw %"class.(anonymous namespace)::RISCVInstructionSelector", ptr %9, i32 0, i32 3
  %14 = load ptr, ptr %13, align 8
  %15 = getelementptr inbounds nuw %"class.llvm::Register", ptr %7, i32 0, i32 0
  %16 = load i32, ptr %15, align 4
  %17 = call noundef ptr @_ZNK4llvm16RegisterBankInfo10getRegBankENS_8RegisterERKNS_19MachineRegisterInfoERKNS_18TargetRegisterInfoE(ptr noundef nonnull align 8 dereferenceable(160) %11, i32 %16, ptr noundef nonnull align 8 dereferenceable(512) %12, ptr noundef nonnull align 8 dereferenceable(308) %14)
  %18 = call noundef i32 @_ZNK4llvm12RegisterBank5getIDEv(ptr noundef nonnull align 8 dereferenceable(24) %17)
  %19 = icmp eq i32 %18, 0
  ret i1 %19
}

; Function Attrs: mustprogress nounwind uwtable
define linkonce_odr hidden i32 @_ZNK4llvm14MachineOperand6getRegEv(ptr noundef nonnull align 8 dereferenceable(32) %0) #0 comdat align 2 {
  %2 = alloca %"class.llvm::Register", align 4
  %3 = alloca ptr, align 8
  store ptr %0, ptr %3, align 8
  %4 = load ptr, ptr %3, align 8
  %5 = getelementptr inbounds nuw %"class.llvm::MachineOperand", ptr %4, i32 0, i32 1
  %6 = load i32, ptr %5, align 4
  call void @_ZN4llvm8RegisterC2Ej(ptr noundef nonnull align 4 dereferenceable(4) %2, i32 noundef %6)
  %7 = getelementptr inbounds nuw %"class.llvm::Register", ptr %2, i32 0, i32 0
  %8 = load i32, ptr %7, align 4
  ret i32 %8
}

; Function Attrs: mustprogress nounwind uwtable
define linkonce_odr hidden noundef nonnull align 8 dereferenceable(32) ptr @_ZN4llvm12MachineInstr10getOperandEj(ptr noundef nonnull align 8 dereferenceable(70) %0, i32 noundef %1) #0 comdat align 2 {
  %3 = alloca ptr, align 8
  %4 = alloca i32, align 4
  store ptr %0, ptr %3, align 8
  store i32 %1, ptr %4, align 4
  %5 = load ptr, ptr %3, align 8
  %6 = getelementptr inbounds nuw %"class.llvm::MachineInstr", ptr %5, i32 0, i32 3
  %7 = load ptr, ptr %6, align 8
  %8 = load i32, ptr %4, align 4
  %9 = zext i32 %8 to i64
  %10 = getelementptr inbounds %"class.llvm::MachineOperand", ptr %7, i64 %9
  ret ptr %10
}

; Function Attrs: mustprogress nounwind uwtable
define linkonce_odr hidden noundef i32 @_ZNK4llvm12MachineInstr14getNumOperandsEv(ptr noundef nonnull align 8 dereferenceable(70) %0) #0 comdat align 2 {
  %2 = alloca ptr, align 8
  store ptr %0, ptr %2, align 8
  %3 = load ptr, ptr %2, align 8
  %4 = getelementptr inbounds nuw %"class.llvm::MachineInstr", ptr %3, i32 0, i32 4
  %5 = load i24, ptr %4, align 8
  %6 = zext i24 %5 to i32
  ret i32 %6
}

; Function Attrs: mustprogress nounwind uwtable
define internal noundef zeroext i1 @_ZNK12_GLOBAL__N_124RISCVInstructionSelector17selectMergeValuesERN4llvm12MachineInstrERNS1_16MachineIRBuilderERNS1_19MachineRegisterInfoE(ptr noundef nonnull align 8 dereferenceable(1392) %0, ptr noundef nonnull align 8 dereferenceable(70) %1, ptr noundef nonnull align 8 dereferenceable(88) %2, ptr noundef nonnull align 8 dereferenceable(512) %3) #0 align 2 {
  %5 = alloca i1, align 1
  %6 = alloca ptr, align 8
  %7 = alloca ptr, align 8
  %8 = alloca ptr, align 8
  %9 = alloca ptr, align 8
  %10 = alloca %"class.llvm::Register", align 4
  %11 = alloca %"class.llvm::Register", align 4
  %12 = alloca %"class.llvm::Register", align 4
  %13 = alloca %"class.llvm::Register", align 4
  %14 = alloca %"class.llvm::Register", align 4
  %15 = alloca %"class.llvm::Register", align 4
  store ptr %0, ptr %6, align 8
  store ptr %1, ptr %7, align 8
  store ptr %2, ptr %8, align 8
  store ptr %3, ptr %9, align 8
  %16 = load ptr, ptr %6, align 8
  %17 = load ptr, ptr %7, align 8
  %18 = call noundef i32 @_ZNK4llvm12MachineInstr14getNumOperandsEv(ptr noundef nonnull align 8 dereferenceable(70) %17)
  %19 = icmp ne i32 %18, 3
  br i1 %19, label %20, label %21

20:                                               ; preds = %4
  store i1 false, ptr %5, align 1
  br label %63

21:                                               ; preds = %4
  %22 = load ptr, ptr %7, align 8
  %23 = call noundef nonnull align 8 dereferenceable(32) ptr @_ZN4llvm12MachineInstr10getOperandEj(ptr noundef nonnull align 8 dereferenceable(70) %22, i32 noundef 0)
  %24 = call i32 @_ZNK4llvm14MachineOperand6getRegEv(ptr noundef nonnull align 8 dereferenceable(32) %23)
  %25 = getelementptr inbounds nuw %"class.llvm::Register", ptr %10, i32 0, i32 0
  store i32 %24, ptr %25, align 4
  %26 = load ptr, ptr %7, align 8
  %27 = call noundef nonnull align 8 dereferenceable(32) ptr @_ZN4llvm12MachineInstr10getOperandEj(ptr noundef nonnull align 8 dereferenceable(70) %26, i32 noundef 1)
  %28 = call i32 @_ZNK4llvm14MachineOperand6getRegEv(ptr noundef nonnull align 8 dereferenceable(32) %27)
  %29 = getelementptr inbounds nuw %"class.llvm::Register", ptr %11, i32 0, i32 0
  store i32 %28, ptr %29, align 4
  %30 = load ptr, ptr %7, align 8
  %31 = call noundef nonnull align 8 dereferenceable(32) ptr @_ZN4llvm12MachineInstr10getOperandEj(ptr noundef nonnull align 8 dereferenceable(70) %30, i32 noundef 2)
  %32 = call i32 @_ZNK4llvm14MachineOperand6getRegEv(ptr noundef nonnull align 8 dereferenceable(32) %31)
  %33 = getelementptr inbounds nuw %"class.llvm::Register", ptr %12, i32 0, i32 0
  store i32 %32, ptr %33, align 4
  call void @llvm.memcpy.p0.p0.i64(ptr align 4 %13, ptr align 4 %10, i64 4, i1 false)
  %34 = load ptr, ptr %9, align 8
  %35 = getelementptr inbounds nuw %"class.llvm::Register", ptr %13, i32 0, i32 0
  %36 = load i32, ptr %35, align 4
  %37 = call noundef zeroext i1 @_ZNK12_GLOBAL__N_124RISCVInstructionSelector11isRegInFprbEN4llvm8RegisterERNS1_19MachineRegisterInfoE(ptr noundef nonnull align 8 dereferenceable(1392) %16, i32 %36, ptr noundef nonnull align 8 dereferenceable(512) %34)
  br i1 %37, label %38, label %48

38:                                               ; preds = %21
  call void @llvm.memcpy.p0.p0.i64(ptr align 4 %14, ptr align 4 %11, i64 4, i1 false)
  %39 = load ptr, ptr %9, align 8
  %40 = getelementptr inbounds nuw %"class.llvm::Register", ptr %14, i32 0, i32 0
  %41 = load i32, ptr %40, align 4
  %42 = call noundef zeroext i1 @_ZNK12_GLOBAL__N_124RISCVInstructionSelector11isRegInGprbEN4llvm8RegisterERNS1_19MachineRegisterInfoE(ptr noundef nonnull align 8 dereferenceable(1392) %16, i32 %41, ptr noundef nonnull align 8 dereferenceable(512) %39)
  br i1 %42, label %43, label %48

43:                                               ; preds = %38
  call void @llvm.memcpy.p0.p0.i64(ptr align 4 %15, ptr align 4 %12, i64 4, i1 false)
  %44 = load ptr, ptr %9, align 8
  %45 = getelementptr inbounds nuw %"class.llvm::Register", ptr %15, i32 0, i32 0
  %46 = load i32, ptr %45, align 4
  %47 = call noundef zeroext i1 @_ZNK12_GLOBAL__N_124RISCVInstructionSelector11isRegInGprbEN4llvm8RegisterERNS1_19MachineRegisterInfoE(ptr noundef nonnull align 8 dereferenceable(1392) %16, i32 %46, ptr noundef nonnull align 8 dereferenceable(512) %44)
  br i1 %47, label %49, label %48

48:                                               ; preds = %43, %38, %21
  store i1 false, ptr %5, align 1
  br label %63

49:                                               ; preds = %43
  %50 = load ptr, ptr %7, align 8
  %51 = getelementptr inbounds nuw %"class.(anonymous namespace)::RISCVInstructionSelector", ptr %16, i32 0, i32 2
  %52 = load ptr, ptr %51, align 8
  %53 = getelementptr inbounds i8, ptr %52, i64 8
  %54 = call noundef nonnull align 8 dereferenceable(32) ptr @_ZNK4llvm11MCInstrInfo3getEj(ptr noundef nonnull align 8 dereferenceable(44) %53, i32 noundef 298)
  call void @_ZN4llvm12MachineInstr7setDescERKNS_11MCInstrDescE(ptr noundef nonnull align 8 dereferenceable(70) %50, ptr noundef nonnull align 8 dereferenceable(32) %54)
  %55 = load ptr, ptr %7, align 8
  %56 = getelementptr inbounds nuw %"class.(anonymous namespace)::RISCVInstructionSelector", ptr %16, i32 0, i32 2
  %57 = load ptr, ptr %56, align 8
  %58 = getelementptr inbounds nuw %"class.(anonymous namespace)::RISCVInstructionSelector", ptr %16, i32 0, i32 3
  %59 = load ptr, ptr %58, align 8
  %60 = getelementptr inbounds nuw %"class.(anonymous namespace)::RISCVInstructionSelector", ptr %16, i32 0, i32 4
  %61 = load ptr, ptr %60, align 8
  %62 = call noundef zeroext i1 @_ZN4llvm32constrainSelectedInstRegOperandsERNS_12MachineInstrERKNS_15TargetInstrInfoERKNS_18TargetRegisterInfoERKNS_16RegisterBankInfoE(ptr noundef nonnull align 8 dereferenceable(70) %55, ptr noundef nonnull align 8 dereferenceable(80) %57, ptr noundef nonnull align 8 dereferenceable(308) %59, ptr noundef nonnull align 8 dereferenceable(160) %61)
  store i1 %62, ptr %5, align 1
  br label %63

63:                                               ; preds = %49, %48, %20
  %64 = load i1, ptr %5, align 1
  ret i1 %64
}