; Function Attrs: mustprogress nounwind uwtable
define internal fastcc noundef zeroext i1 @_ZNK12_GLOBAL__N_124RISCVInstructionSelector17selectMergeValuesERN4llvm12MachineInstrERNS1_16MachineIRBuilderERNS1_19MachineRegisterInfoE(ptr nocapture noundef nonnull readonly align 8 dereferenceable(1392) %0, ptr noundef nonnull align 8 dereferenceable(70) %1, ptr noundef nonnull align 8 dereferenceable(512) %2) unnamed_addr #0 align 2 {
  %4 = getelementptr inbounds nuw i8, ptr %1, i64 40
  %5 = load i24, ptr %4, align 8
  %.not = icmp eq i24 %5, 3
  br i1 %.not, label %6, label %38

6:                                                ; preds = %3
  %7 = getelementptr inbounds nuw i8, ptr %1, i64 32
  %8 = load ptr, ptr %7, align 8
  %9 = getelementptr inbounds nuw i8, ptr %8, i64 4
  %10 = load i32, ptr %9, align 4
  %11 = getelementptr inbounds i8, ptr %8, i64 36
  %12 = load i32, ptr %11, align 4
  %13 = getelementptr inbounds i8, ptr %8, i64 68
  %14 = load i32, ptr %13, align 4
  %15 = getelementptr inbounds i8, ptr %0, i64 96
  %.val = load ptr, ptr %15, align 8
  %16 = getelementptr inbounds i8, ptr %0, i64 104
  %.val16 = load ptr, ptr %16, align 8
  %17 = tail call noundef ptr @_ZNK4llvm16RegisterBankInfo10getRegBankENS_8RegisterERKNS_19MachineRegisterInfoERKNS_18TargetRegisterInfoE(ptr noundef nonnull align 8 dereferenceable(160) %.val16, i32 %10, ptr noundef nonnull align 8 dereferenceable(512) %2, ptr noundef nonnull align 8 dereferenceable(308) %.val) #24
  %18 = load i32, ptr %17, align 8
  %19 = icmp eq i32 %18, 0
  br i1 %19, label %20, label %38

20:                                               ; preds = %6
  %.val17 = load ptr, ptr %15, align 8
  %.val18 = load ptr, ptr %16, align 8
  %21 = tail call noundef ptr @_ZNK4llvm16RegisterBankInfo10getRegBankENS_8RegisterERKNS_19MachineRegisterInfoERKNS_18TargetRegisterInfoE(ptr noundef nonnull align 8 dereferenceable(160) %.val18, i32 %12, ptr noundef nonnull align 8 dereferenceable(512) %2, ptr noundef nonnull align 8 dereferenceable(308) %.val17) #24
  %22 = load i32, ptr %21, align 8
  %23 = icmp eq i32 %22, 1
  br i1 %23, label %24, label %38

24:                                               ; preds = %20
  %.val19 = load ptr, ptr %15, align 8
  %.val20 = load ptr, ptr %16, align 8
  %25 = tail call noundef ptr @_ZNK4llvm16RegisterBankInfo10getRegBankENS_8RegisterERKNS_19MachineRegisterInfoERKNS_18TargetRegisterInfoE(ptr noundef nonnull align 8 dereferenceable(160) %.val20, i32 %14, ptr noundef nonnull align 8 dereferenceable(512) %2, ptr noundef nonnull align 8 dereferenceable(308) %.val19) #24
  %26 = load i32, ptr %25, align 8
  %27 = icmp eq i32 %26, 1
  br i1 %27, label %28, label %38

28:                                               ; preds = %24
  %29 = getelementptr inbounds nuw i8, ptr %0, i64 88
  %30 = load ptr, ptr %29, align 8
  %31 = getelementptr inbounds i8, ptr %30, i64 8
  %32 = load ptr, ptr %31, align 8
  %33 = getelementptr inbounds i8, ptr %32, i64 -9536
  tail call void @_ZN4llvm12MachineInstr7setDescERKNS_11MCInstrDescE(ptr noundef nonnull align 8 dereferenceable(70) %1, ptr noundef nonnull align 8 dereferenceable(32) %33) #24
  %34 = load ptr, ptr %29, align 8
  %35 = load ptr, ptr %15, align 8
  %36 = load ptr, ptr %16, align 8
  %37 = tail call noundef zeroext i1 @_ZN4llvm32constrainSelectedInstRegOperandsERNS_12MachineInstrERKNS_15TargetInstrInfoERKNS_18TargetRegisterInfoERKNS_16RegisterBankInfoE(ptr noundef nonnull align 8 dereferenceable(70) %1, ptr noundef nonnull align 8 dereferenceable(80) %34, ptr noundef nonnull align 8 dereferenceable(308) %35, ptr noundef nonnull align 8 dereferenceable(160) %36) #24
  br label %38

38:                                               ; preds = %6, %20, %24, %3, %28
  %.0 = phi i1 [ %37, %28 ], [ false, %3 ], [ false, %24 ], [ false, %20 ], [ false, %6 ]
  ret i1 %.0
}